target datalayout = "e-m:e-p270:32:32-p271:32:32-p272:64:64-i64:64-i128:128-f80:128-n8:16:32:64-S128"
target triple = "x86_64-pc-linux-gnu"

%struct.polymorphic_actuals = type { i32, i32, i32, i32 }

@.str.1 = private unnamed_addr constant [10 x i8] c"funcapi.c\00", align 1
@.str.27 = private unnamed_addr constant [58 x i8] c"argument declared %s is not a multirange type but type %s\00", align 1
@.str.28 = private unnamed_addr constant [14 x i8] c"anymultirange\00", align 1
@.str.30 = private unnamed_addr constant [37 x i8] c"could not determine polymorphic type\00", align 1
@__func__.resolve_anyrange_from_others = private unnamed_addr constant [29 x i8] c"resolve_anyrange_from_others\00", align 1

; Function Attrs: nounwind uwtable
define internal void @resolve_anyrange_from_others(ptr noundef %0) #0 {
  %2 = alloca ptr, align 8
  %3 = alloca i32, align 4
  %4 = alloca i32, align 4
  store ptr %0, ptr %2, align 8
  %5 = load ptr, ptr %2, align 8
  %6 = getelementptr inbounds nuw %struct.polymorphic_actuals, ptr %5, i32 0, i32 3
  %7 = load i32, ptr %6, align 4
  %8 = icmp ne i32 %7, 0
  br i1 %8, label %9, label %36

9:                                                ; preds = %1
  call void @llvm.lifetime.start.p0(i64 4, ptr %3) #7
  %10 = load ptr, ptr %2, align 8
  %11 = getelementptr inbounds nuw %struct.polymorphic_actuals, ptr %10, i32 0, i32 3
  %12 = load i32, ptr %11, align 4
  %13 = call i32 @getBaseType(i32 noundef %12)
  store i32 %13, ptr %3, align 4
  call void @llvm.lifetime.start.p0(i64 4, ptr %4) #7
  %14 = load i32, ptr %3, align 4
  %15 = call i32 @get_multirange_range(i32 noundef %14)
  store i32 %15, ptr %4, align 4
  %16 = load i32, ptr %4, align 4
  %17 = icmp ne i32 %16, 0
  br i1 %17, label %32, label %18

18:                                               ; preds = %9
  br label %19

19:                                               ; preds = %18
  br i1 true, label %20, label %22

20:                                               ; preds = %19
  %21 = call zeroext i1 @errstart_cold(i32 noundef 21, ptr noundef null) #8
  br i1 %21, label %24, label %29

22:                                               ; preds = %19
  %23 = call zeroext i1 @errstart(i32 noundef 21, ptr noundef null)
  br i1 %23, label %24, label %29

24:                                               ; preds = %22, %20
  %25 = call i32 @errcode(i32 noundef 67141764)
  %26 = load i32, ptr %3, align 4
  %27 = call ptr @format_type_be(i32 noundef %26)
  %28 = call i32 (ptr, ...) @errmsg(ptr noundef @.str.27, ptr noundef @.str.28, ptr noundef %27)
  call void @errfinish(ptr noundef @.str.1, i32 noundef 699, ptr noundef @__func__.resolve_anyrange_from_others)
  br label %29

29:                                               ; preds = %24, %22, %20
  unreachable

30:                                               ; No predecessors!
  br label %31

31:                                               ; preds = %30
  br label %32

32:                                               ; preds = %31, %9
  %33 = load i32, ptr %4, align 4
  %34 = load ptr, ptr %2, align 8
  %35 = getelementptr inbounds nuw %struct.polymorphic_actuals, ptr %34, i32 0, i32 2
  store i32 %33, ptr %35, align 4
  call void @llvm.lifetime.end.p0(i64 4, ptr %4) #7
  call void @llvm.lifetime.end.p0(i64 4, ptr %3) #7
  br label %46

36:                                               ; preds = %1
  br label %37

37:                                               ; preds = %36
  br i1 true, label %38, label %40

38:                                               ; preds = %37
  %39 = call zeroext i1 @errstart_cold(i32 noundef 21, ptr noundef null) #8
  br i1 %39, label %42, label %44

40:                                               ; preds = %37
  %41 = call zeroext i1 @errstart(i32 noundef 21, ptr noundef null)
  br i1 %41, label %42, label %44

42:                                               ; preds = %40, %38
  %43 = call i32 (ptr, ...) @errmsg_internal(ptr noundef @.str.30)
  call void @errfinish(ptr noundef @.str.1, i32 noundef 703, ptr noundef @__func__.resolve_anyrange_from_others)
  br label %44

44:                                               ; preds = %42, %40, %38
  unreachable

45:                                               ; No predecessors!
  br label %46

46:                                               ; preds = %45, %32
  ret void
}